target datalayout = "e-m:e-p270:32:32-p271:32:32-p272:64:64-i64:64-i128:128-f80:128-n8:16:32:64-S128"
target triple = "x86_64-pc-linux-gnu"

@.str = private unnamed_addr constant [6 x i8] c"Qt %s\00", align 1
@.str.1 = private unnamed_addr constant [6 x i8] c"6.2.4\00", align 1
@.str.2 = private unnamed_addr constant [11 x i8] c"Minizip %s\00", align 1
@.str.3 = private unnamed_addr constant [6 x i8] c"1.2.8\00", align 1
@.str.4 = private unnamed_addr constant [13 x i8] c"QtMultimedia\00", align 1
@.str.5 = private unnamed_addr constant [7 x i8] c"QtDBus\00", align 1
@.str.6 = private unnamed_addr constant [18 x i8] c"automatic updates\00", align 1
@.str.7 = private unnamed_addr constant [3 x i8] c"%s\00", align 1

; Function Attrs: mustprogress null_pointer_is_valid sspstrong uwtable
define void @_Z33gather_wireshark_qt_compiled_infoPP6_GList(ptr noundef %0) #0 {
  %2 = alloca ptr, align 8
  %3 = alloca ptr, align 8
  store ptr %0, ptr %2, align 8
  %4 = load ptr, ptr %2, align 8
  call void (ptr, ptr, ...) @with_feature(ptr noundef %4, ptr noundef @.str, ptr noundef @.str.1)
  %5 = load ptr, ptr %2, align 8
  call void @gather_caplibs_compile_info(ptr noundef %5)
  %6 = load ptr, ptr %2, align 8
  call void @epan_gather_compile_info(ptr noundef %6)
  %7 = load ptr, ptr %2, align 8
  call void (ptr, ptr, ...) @with_feature(ptr noundef %7, ptr noundef @.str.2, ptr noundef @.str.3)
  %8 = load ptr, ptr %2, align 8
  call void (ptr, ptr, ...) @with_feature(ptr noundef %8, ptr noundef @.str.4)
  %9 = load ptr, ptr %2, align 8
  call void (ptr, ptr, ...) @with_feature(ptr noundef %9, ptr noundef @.str.5)
  call void @llvm.lifetime.start.p0(i64 8, ptr %3) #17
  %10 = call ptr @software_update_info()
  store ptr %10, ptr %3, align 8
  %11 = load ptr, ptr %3, align 8
  %12 = icmp ne ptr %11, null
  br i1 %12, label %13, label %17

13:                                               ; preds = %1
  %14 = load ptr, ptr %2, align 8
  call void (ptr, ptr, ...) @with_feature(ptr noundef %14, ptr noundef @.str.6)
  %15 = load ptr, ptr %2, align 8
  %16 = load ptr, ptr %3, align 8
  call void (ptr, ptr, ...) @with_feature(ptr noundef %15, ptr noundef @.str.7, ptr noundef %16)
  br label %19

17:                                               ; preds = %1
  %18 = load ptr, ptr %2, align 8
  call void (ptr, ptr, ...) @without_feature(ptr noundef %18, ptr noundef @.str.6)
  br label %19

19:                                               ; preds = %17, %13
  call void @llvm.lifetime.end.p0(i64 8, ptr %3) #17
  ret void
}