; Function Attrs: mustprogress null_pointer_is_valid sspstrong uwtable
define void @_Z33gather_wireshark_qt_compiled_infoPP6_GList(ptr noundef %0) #0 {
  tail call void (ptr, ptr, ...) @with_feature(ptr noundef %0, ptr noundef nonnull @.str, ptr noundef nonnull @.str.1)
  tail call void @gather_caplibs_compile_info(ptr noundef %0)
  tail call void @epan_gather_compile_info(ptr noundef %0)
  tail call void (ptr, ptr, ...) @with_feature(ptr noundef %0, ptr noundef nonnull @.str.2, ptr noundef nonnull @.str.3)
  tail call void (ptr, ptr, ...) @with_feature(ptr noundef %0, ptr noundef nonnull @.str.4)
  tail call void (ptr, ptr, ...) @with_feature(ptr noundef %0, ptr noundef nonnull @.str.5)
  %2 = tail call ptr @software_update_info()
  %.not = icmp eq ptr %2, null
  br i1 %.not, label %4, label %3

3:                                                ; preds = %1
  tail call void (ptr, ptr, ...) @with_feature(ptr noundef %0, ptr noundef nonnull @.str.6)
  tail call void (ptr, ptr, ...) @with_feature(ptr noundef %0, ptr noundef nonnull @.str.7, ptr noundef nonnull %2)
  br label %5

4:                                                ; preds = %1
  tail call void (ptr, ptr, ...) @without_feature(ptr noundef %0, ptr noundef nonnull @.str.6)
  br label %5

5:                                                ; preds = %4, %3
  ret void
}